; ModuleID = 'source-C-CXX/12/738.c'
source_filename = "source-C-CXX/12/738.c"
target datalayout = "e-m:e-p270:32:32-p271:32:32-p272:64:64-i64:64-f80:128-n8:16:32:64-S128"
target triple = "x86_64-pc-linux-gnu"

%struct._IO_FILE = type { i32, i8*, i8*, i8*, i8*, i8*, i8*, i8*, i8*, i8*, i8*, i8*, %struct._IO_marker*, %struct._IO_FILE*, i32, i32, i64, i16, i8, [1 x i8], i8*, i64, %struct._IO_codecvt*, %struct._IO_wide_data*, %struct._IO_FILE*, i8*, i64, i32, [20 x i8] }
%struct._IO_marker = type opaque
%struct._IO_codecvt = type opaque
%struct._IO_wide_data = type opaque

@.str = private unnamed_addr constant [3 x i8] c"%d\00", align 1
@.str.1 = private unnamed_addr constant [4 x i8] c" %d\00", align 1
@stdin = external local_unnamed_addr global %struct._IO_FILE*, align 8

; Function Attrs: nofree nounwind sspstrong uwtable
define dso_local i32 @main() local_unnamed_addr #0 {
  %1 = alloca i32, align 4
  %2 = alloca [20000 x i32], align 16
  %3 = alloca i32, align 4
  %4 = bitcast i32* %1 to i8*
  call void @llvm.lifetime.start.p0i8(i64 4, i8* nonnull %4) #4
  %5 = bitcast [20000 x i32]* %2 to i8*
  call void @llvm.lifetime.start.p0i8(i64 80000, i8* nonnull %5) #4
  %6 = bitcast i32* %3 to i8*
  call void @llvm.lifetime.start.p0i8(i64 4, i8* nonnull %6) #4
  %7 = call i32 (i8*, ...) @__isoc99_scanf(i8* getelementptr inbounds ([3 x i8], [3 x i8]* @.str, i64 0, i64 0), i32* nonnull %1)
  %8 = getelementptr inbounds [20000 x i32], [20000 x i32]* %2, i64 0, i64 0
  %9 = load i32, i32* %1, align 4, !tbaa !5
  %10 = icmp slt i32 %9, 1
  br i1 %10, label %11, label %16

11:                                               ; preds = %125, %0
  %12 = load %struct._IO_FILE*, %struct._IO_FILE** @stdin, align 8, !tbaa !9
  %13 = call i32 @getc(%struct._IO_FILE* %12) #4
  %14 = load %struct._IO_FILE*, %struct._IO_FILE** @stdin, align 8, !tbaa !9
  %15 = call i32 @getc(%struct._IO_FILE* %14) #4
  call void @llvm.lifetime.end.p0i8(i64 4, i8* nonnull %6) #4
  call void @llvm.lifetime.end.p0i8(i64 80000, i8* nonnull %5) #4
  call void @llvm.lifetime.end.p0i8(i64 4, i8* nonnull %4) #4
  ret i32 0

16:                                               ; preds = %0, %125
  %17 = phi i32 [ %127, %125 ], [ 1, %0 ]
  %18 = phi i32 [ %126, %125 ], [ undef, %0 ]
  %19 = call i32 (i8*, ...) @__isoc99_scanf(i8* getelementptr inbounds ([3 x i8], [3 x i8]* @.str, i64 0, i64 0), i32* nonnull %3)
  %20 = icmp eq i32 %17, 1
  %21 = load i32, i32* %3, align 4
  br i1 %20, label %103, label %22

22:                                               ; preds = %16
  %23 = icmp slt i32 %18, 0
  br i1 %23, label %119, label %24

24:                                               ; preds = %22
  %25 = add nuw i32 %18, 1
  %26 = zext i32 %25 to i64
  %27 = icmp ult i32 %18, 7
  br i1 %27, label %100, label %28

28:                                               ; preds = %24
  %29 = and i64 %26, 4294967288
  %30 = insertelement <4 x i32> poison, i32 %21, i32 0
  %31 = shufflevector <4 x i32> %30, <4 x i32> poison, <4 x i32> zeroinitializer
  %32 = insertelement <4 x i32> poison, i32 %21, i32 0
  %33 = shufflevector <4 x i32> %32, <4 x i32> poison, <4 x i32> zeroinitializer
  %34 = add nsw i64 %29, -8
  %35 = lshr exact i64 %34, 3
  %36 = add nuw nsw i64 %35, 1
  %37 = and i64 %36, 1
  %38 = icmp eq i64 %34, 0
  br i1 %38, label %74, label %39

39:                                               ; preds = %28
  %40 = and i64 %36, 4611686018427387902
  br label %41

41:                                               ; preds = %41, %39
  %42 = phi i64 [ 0, %39 ], [ %71, %41 ]
  %43 = phi <4 x i32> [ zeroinitializer, %39 ], [ %69, %41 ]
  %44 = phi <4 x i32> [ zeroinitializer, %39 ], [ %70, %41 ]
  %45 = phi i64 [ %40, %39 ], [ %72, %41 ]
  %46 = getelementptr inbounds [20000 x i32], [20000 x i32]* %2, i64 0, i64 %42
  %47 = bitcast i32* %46 to <4 x i32>*
  %48 = load <4 x i32>, <4 x i32>* %47, align 16, !tbaa !5
  %49 = getelementptr inbounds i32, i32* %46, i64 4
  %50 = bitcast i32* %49 to <4 x i32>*
  %51 = load <4 x i32>, <4 x i32>* %50, align 16, !tbaa !5
  %52 = icmp eq <4 x i32> %48, %31
  %53 = icmp eq <4 x i32> %51, %33
  %54 = zext <4 x i1> %52 to <4 x i32>
  %55 = zext <4 x i1> %53 to <4 x i32>
  %56 = add <4 x i32> %43, %54
  %57 = add <4 x i32> %44, %55
  %58 = or i64 %42, 8
  %59 = getelementptr inbounds [20000 x i32], [20000 x i32]* %2, i64 0, i64 %58
  %60 = bitcast i32* %59 to <4 x i32>*
  %61 = load <4 x i32>, <4 x i32>* %60, align 16, !tbaa !5
  %62 = getelementptr inbounds i32, i32* %59, i64 4
  %63 = bitcast i32* %62 to <4 x i32>*
  %64 = load <4 x i32>, <4 x i32>* %63, align 16, !tbaa !5
  %65 = icmp eq <4 x i32> %61, %31
  %66 = icmp eq <4 x i32> %64, %33
  %67 = zext <4 x i1> %65 to <4 x i32>
  %68 = zext <4 x i1> %66 to <4 x i32>
  %69 = add <4 x i32> %56, %67
  %70 = add <4 x i32> %57, %68
  %71 = add nuw i64 %42, 16
  %72 = add i64 %45, -2
  %73 = icmp eq i64 %72, 0
  br i1 %73, label %74, label %41, !llvm.loop !11

74:                                               ; preds = %41, %28
  %75 = phi <4 x i32> [ undef, %28 ], [ %69, %41 ]
  %76 = phi <4 x i32> [ undef, %28 ], [ %70, %41 ]
  %77 = phi i64 [ 0, %28 ], [ %71, %41 ]
  %78 = phi <4 x i32> [ zeroinitializer, %28 ], [ %69, %41 ]
  %79 = phi <4 x i32> [ zeroinitializer, %28 ], [ %70, %41 ]
  %80 = icmp eq i64 %37, 0
  br i1 %80, label %94, label %81

81:                                               ; preds = %74
  %82 = getelementptr inbounds [20000 x i32], [20000 x i32]* %2, i64 0, i64 %77
  %83 = getelementptr inbounds i32, i32* %82, i64 4
  %84 = bitcast i32* %83 to <4 x i32>*
  %85 = load <4 x i32>, <4 x i32>* %84, align 16, !tbaa !5
  %86 = icmp eq <4 x i32> %85, %33
  %87 = zext <4 x i1> %86 to <4 x i32>
  %88 = add <4 x i32> %79, %87
  %89 = bitcast i32* %82 to <4 x i32>*
  %90 = load <4 x i32>, <4 x i32>* %89, align 16, !tbaa !5
  %91 = icmp eq <4 x i32> %90, %31
  %92 = zext <4 x i1> %91 to <4 x i32>
  %93 = add <4 x i32> %78, %92
  br label %94

94:                                               ; preds = %74, %81
  %95 = phi <4 x i32> [ %75, %74 ], [ %93, %81 ]
  %96 = phi <4 x i32> [ %76, %74 ], [ %88, %81 ]
  %97 = add <4 x i32> %96, %95
  %98 = call i32 @llvm.vector.reduce.add.v4i32(<4 x i32> %97)
  %99 = icmp eq i64 %29, %26
  br i1 %99, label %106, label %100

100:                                              ; preds = %24, %94
  %101 = phi i64 [ 0, %24 ], [ %29, %94 ]
  %102 = phi i32 [ 0, %24 ], [ %98, %94 ]
  br label %109

103:                                              ; preds = %16
  %104 = call i32 (i8*, ...) @printf(i8* nonnull dereferenceable(1) getelementptr inbounds ([3 x i8], [3 x i8]* @.str, i64 0, i64 0), i32 %21)
  %105 = load i32, i32* %3, align 4, !tbaa !5
  store i32 %105, i32* %8, align 16, !tbaa !5
  br label %125

106:                                              ; preds = %109, %94
  %107 = phi i32 [ %98, %94 ], [ %116, %109 ]
  %108 = icmp eq i32 %107, 0
  br i1 %108, label %119, label %125

109:                                              ; preds = %100, %109
  %110 = phi i64 [ %117, %109 ], [ %101, %100 ]
  %111 = phi i32 [ %116, %109 ], [ %102, %100 ]
  %112 = getelementptr inbounds [20000 x i32], [20000 x i32]* %2, i64 0, i64 %110
  %113 = load i32, i32* %112, align 4, !tbaa !5
  %114 = icmp eq i32 %113, %21
  %115 = zext i1 %114 to i32
  %116 = add nuw nsw i32 %111, %115
  %117 = add nuw nsw i64 %110, 1
  %118 = icmp eq i64 %117, %26
  br i1 %118, label %106, label %109, !llvm.loop !14

119:                                              ; preds = %22, %106
  %120 = call i32 (i8*, ...) @printf(i8* nonnull dereferenceable(1) getelementptr inbounds ([4 x i8], [4 x i8]* @.str.1, i64 0, i64 0), i32 %21)
  %121 = add nsw i32 %18, 1
  %122 = load i32, i32* %3, align 4, !tbaa !5
  %123 = sext i32 %121 to i64
  %124 = getelementptr inbounds [20000 x i32], [20000 x i32]* %2, i64 0, i64 %123
  store i32 %122, i32* %124, align 4, !tbaa !5
  br label %125

125:                                              ; preds = %106, %119, %103
  %126 = phi i32 [ 0, %103 ], [ %121, %119 ], [ %18, %106 ]
  %127 = add nuw nsw i32 %17, 1
  %128 = load i32, i32* %1, align 4, !tbaa !5
  %129 = icmp slt i32 %17, %128
  br i1 %129, label %16, label %11, !llvm.loop !16
}

; Function Attrs: argmemonly mustprogress nofree nosync nounwind willreturn
declare void @llvm.lifetime.start.p0i8(i64 immarg, i8* nocapture) #1

; Function Attrs: nofree nounwind
declare noundef i32 @__isoc99_scanf(i8* nocapture noundef readonly, ...) local_unnamed_addr #2

; Function Attrs: nofree nounwind
declare noundef i32 @printf(i8* nocapture noundef readonly, ...) local_unnamed_addr #2

; Function Attrs: argmemonly mustprogress nofree nosync nounwind willreturn
declare void @llvm.lifetime.end.p0i8(i64 immarg, i8* nocapture) #1

; Function Attrs: nofree nounwind
declare noundef i32 @getc(%struct._IO_FILE* nocapture noundef) local_unnamed_addr #2

; Function Attrs: nofree nosync nounwind readnone willreturn
declare i32 @llvm.vector.reduce.add.v4i32(<4 x i32>) #3


!llvm.module.flags = !{!0, !1, !2, !3}
!llvm.ident = !{!4}

!0 = !{i32 1, !"wchar_size", i32 4}
!1 = !{i32 7, !"PIC Level", i32 2}
!2 = !{i32 7, !"PIE Level", i32 2}
!3 = !{i32 7, !"uwtable", i32 1}
!4 = !{!"clang version 13.0.0"}
!5 = !{!6, !6, i64 0}
!6 = !{!"int", !7, i64 0}
!7 = !{!"omnipotent char", !8, i64 0}
!8 = !{!"Simple C/C++ TBAA"}
!9 = !{!10, !10, i64 0}
!10 = !{!"any pointer", !7, i64 0}
!11 = distinct !{!11, !12, !13}
!12 = !{!"llvm.loop.mustprogress"}
!13 = !{!"llvm.loop.isvectorized", i32 1}
!14 = distinct !{!14, !12, !15, !13}
!15 = !{!"llvm.loop.unroll.runtime.disable"}
!16 = distinct !{!16, !12}
